
Procedure Two.elf:     file format elf32-avr

Sections:
Idx Name          Size      VMA       LMA       File off  Algn
  0 .data         00000000  00800200  00800200  00000254  2**0
                  CONTENTS, ALLOC, LOAD, DATA
  1 .text         000001e0  00000000  00000000  00000074  2**1
                  CONTENTS, ALLOC, LOAD, READONLY, CODE
  2 .bss          00000002  00800200  00800200  00000254  2**0
                  ALLOC
  3 .comment      00000030  00000000  00000000  00000254  2**0
                  CONTENTS, READONLY
  4 .note.gnu.avr.deviceinfo 00000040  00000000  00000000  00000284  2**2
                  CONTENTS, READONLY
  5 .debug_aranges 00000078  00000000  00000000  000002c4  2**0
                  CONTENTS, READONLY, DEBUGGING
  6 .debug_info   00000ed9  00000000  00000000  0000033c  2**0
                  CONTENTS, READONLY, DEBUGGING
  7 .debug_abbrev 00000d05  00000000  00000000  00001215  2**0
                  CONTENTS, READONLY, DEBUGGING
  8 .debug_line   000004b5  00000000  00000000  00001f1a  2**0
                  CONTENTS, READONLY, DEBUGGING
  9 .debug_frame  00000110  00000000  00000000  000023d0  2**2
                  CONTENTS, READONLY, DEBUGGING
 10 .debug_str    0000061d  00000000  00000000  000024e0  2**0
                  CONTENTS, READONLY, DEBUGGING
 11 .debug_loc    00000139  00000000  00000000  00002afd  2**0
                  CONTENTS, READONLY, DEBUGGING
 12 .debug_ranges 00000058  00000000  00000000  00002c36  2**0
                  CONTENTS, READONLY, DEBUGGING

Disassembly of section .text:

00000000 <__vectors>:
   0:	71 c0       	rjmp	.+226    	; 0xe4 <__ctors_end>
   2:	00 00       	nop
   4:	81 c0       	rjmp	.+258    	; 0x108 <__bad_interrupt>
   6:	00 00       	nop
   8:	7f c0       	rjmp	.+254    	; 0x108 <__bad_interrupt>
   a:	00 00       	nop
   c:	7d c0       	rjmp	.+250    	; 0x108 <__bad_interrupt>
   e:	00 00       	nop
  10:	7b c0       	rjmp	.+246    	; 0x108 <__bad_interrupt>
  12:	00 00       	nop
  14:	79 c0       	rjmp	.+242    	; 0x108 <__bad_interrupt>
  16:	00 00       	nop
  18:	77 c0       	rjmp	.+238    	; 0x108 <__bad_interrupt>
  1a:	00 00       	nop
  1c:	75 c0       	rjmp	.+234    	; 0x108 <__bad_interrupt>
  1e:	00 00       	nop
  20:	73 c0       	rjmp	.+230    	; 0x108 <__bad_interrupt>
  22:	00 00       	nop
  24:	71 c0       	rjmp	.+226    	; 0x108 <__bad_interrupt>
  26:	00 00       	nop
  28:	6f c0       	rjmp	.+222    	; 0x108 <__bad_interrupt>
  2a:	00 00       	nop
  2c:	6d c0       	rjmp	.+218    	; 0x108 <__bad_interrupt>
  2e:	00 00       	nop
  30:	6b c0       	rjmp	.+214    	; 0x108 <__bad_interrupt>
  32:	00 00       	nop
  34:	69 c0       	rjmp	.+210    	; 0x108 <__bad_interrupt>
  36:	00 00       	nop
  38:	67 c0       	rjmp	.+206    	; 0x108 <__bad_interrupt>
  3a:	00 00       	nop
  3c:	65 c0       	rjmp	.+202    	; 0x108 <__bad_interrupt>
  3e:	00 00       	nop
  40:	63 c0       	rjmp	.+198    	; 0x108 <__bad_interrupt>
  42:	00 00       	nop
  44:	61 c0       	rjmp	.+194    	; 0x108 <__bad_interrupt>
  46:	00 00       	nop
  48:	5f c0       	rjmp	.+190    	; 0x108 <__bad_interrupt>
  4a:	00 00       	nop
  4c:	5d c0       	rjmp	.+186    	; 0x108 <__bad_interrupt>
  4e:	00 00       	nop
  50:	5b c0       	rjmp	.+182    	; 0x108 <__bad_interrupt>
  52:	00 00       	nop
  54:	59 c0       	rjmp	.+178    	; 0x108 <__bad_interrupt>
  56:	00 00       	nop
  58:	57 c0       	rjmp	.+174    	; 0x108 <__bad_interrupt>
  5a:	00 00       	nop
  5c:	55 c0       	rjmp	.+170    	; 0x108 <__bad_interrupt>
  5e:	00 00       	nop
  60:	53 c0       	rjmp	.+166    	; 0x108 <__bad_interrupt>
  62:	00 00       	nop
  64:	72 c0       	rjmp	.+228    	; 0x14a <__vector_25>
  66:	00 00       	nop
  68:	4f c0       	rjmp	.+158    	; 0x108 <__bad_interrupt>
  6a:	00 00       	nop
  6c:	4d c0       	rjmp	.+154    	; 0x108 <__bad_interrupt>
  6e:	00 00       	nop
  70:	4b c0       	rjmp	.+150    	; 0x108 <__bad_interrupt>
  72:	00 00       	nop
  74:	49 c0       	rjmp	.+146    	; 0x108 <__bad_interrupt>
  76:	00 00       	nop
  78:	47 c0       	rjmp	.+142    	; 0x108 <__bad_interrupt>
  7a:	00 00       	nop
  7c:	45 c0       	rjmp	.+138    	; 0x108 <__bad_interrupt>
  7e:	00 00       	nop
  80:	43 c0       	rjmp	.+134    	; 0x108 <__bad_interrupt>
  82:	00 00       	nop
  84:	41 c0       	rjmp	.+130    	; 0x108 <__bad_interrupt>
  86:	00 00       	nop
  88:	3f c0       	rjmp	.+126    	; 0x108 <__bad_interrupt>
  8a:	00 00       	nop
  8c:	3d c0       	rjmp	.+122    	; 0x108 <__bad_interrupt>
  8e:	00 00       	nop
  90:	3b c0       	rjmp	.+118    	; 0x108 <__bad_interrupt>
  92:	00 00       	nop
  94:	39 c0       	rjmp	.+114    	; 0x108 <__bad_interrupt>
  96:	00 00       	nop
  98:	37 c0       	rjmp	.+110    	; 0x108 <__bad_interrupt>
  9a:	00 00       	nop
  9c:	35 c0       	rjmp	.+106    	; 0x108 <__bad_interrupt>
  9e:	00 00       	nop
  a0:	33 c0       	rjmp	.+102    	; 0x108 <__bad_interrupt>
  a2:	00 00       	nop
  a4:	31 c0       	rjmp	.+98     	; 0x108 <__bad_interrupt>
  a6:	00 00       	nop
  a8:	2f c0       	rjmp	.+94     	; 0x108 <__bad_interrupt>
  aa:	00 00       	nop
  ac:	2d c0       	rjmp	.+90     	; 0x108 <__bad_interrupt>
  ae:	00 00       	nop
  b0:	2b c0       	rjmp	.+86     	; 0x108 <__bad_interrupt>
  b2:	00 00       	nop
  b4:	29 c0       	rjmp	.+82     	; 0x108 <__bad_interrupt>
  b6:	00 00       	nop
  b8:	27 c0       	rjmp	.+78     	; 0x108 <__bad_interrupt>
  ba:	00 00       	nop
  bc:	25 c0       	rjmp	.+74     	; 0x108 <__bad_interrupt>
  be:	00 00       	nop
  c0:	23 c0       	rjmp	.+70     	; 0x108 <__bad_interrupt>
  c2:	00 00       	nop
  c4:	21 c0       	rjmp	.+66     	; 0x108 <__bad_interrupt>
  c6:	00 00       	nop
  c8:	1f c0       	rjmp	.+62     	; 0x108 <__bad_interrupt>
  ca:	00 00       	nop
  cc:	1d c0       	rjmp	.+58     	; 0x108 <__bad_interrupt>
  ce:	00 00       	nop
  d0:	1b c0       	rjmp	.+54     	; 0x108 <__bad_interrupt>
  d2:	00 00       	nop
  d4:	19 c0       	rjmp	.+50     	; 0x108 <__bad_interrupt>
  d6:	00 00       	nop
  d8:	17 c0       	rjmp	.+46     	; 0x108 <__bad_interrupt>
  da:	00 00       	nop
  dc:	15 c0       	rjmp	.+42     	; 0x108 <__bad_interrupt>
  de:	00 00       	nop
  e0:	13 c0       	rjmp	.+38     	; 0x108 <__bad_interrupt>
	...

000000e4 <__ctors_end>:
  e4:	11 24       	eor	r1, r1
  e6:	1f be       	out	0x3f, r1	; 63
  e8:	cf ef       	ldi	r28, 0xFF	; 255
  ea:	d1 e2       	ldi	r29, 0x21	; 33
  ec:	de bf       	out	0x3e, r29	; 62
  ee:	cd bf       	out	0x3d, r28	; 61
  f0:	00 e0       	ldi	r16, 0x00	; 0
  f2:	0c bf       	out	0x3c, r16	; 60

000000f4 <__do_clear_bss>:
  f4:	22 e0       	ldi	r18, 0x02	; 2
  f6:	a0 e0       	ldi	r26, 0x00	; 0
  f8:	b2 e0       	ldi	r27, 0x02	; 2
  fa:	01 c0       	rjmp	.+2      	; 0xfe <.do_clear_bss_start>

000000fc <.do_clear_bss_loop>:
  fc:	1d 92       	st	X+, r1

000000fe <.do_clear_bss_start>:
  fe:	a2 30       	cpi	r26, 0x02	; 2
 100:	b2 07       	cpc	r27, r18
 102:	e1 f7       	brne	.-8      	; 0xfc <.do_clear_bss_loop>
 104:	58 d0       	rcall	.+176    	; 0x1b6 <main>
 106:	6a c0       	rjmp	.+212    	; 0x1dc <_exit>

00000108 <__bad_interrupt>:
 108:	7b cf       	rjmp	.-266    	; 0x0 <__vectors>

0000010a <SERIAL_uartInitAsync>:
    }

    ch = UDR0;

    return ch;
}
 10a:	10 92 c0 00 	sts	0x00C0, r1	; 0x8000c0 <__TEXT_REGION_LENGTH__+0x7c00c0>
 10e:	88 e9       	ldi	r24, 0x98	; 152
 110:	80 93 c1 00 	sts	0x00C1, r24	; 0x8000c1 <__TEXT_REGION_LENGTH__+0x7c00c1>
 114:	86 e0       	ldi	r24, 0x06	; 6
 116:	80 93 c2 00 	sts	0x00C2, r24	; 0x8000c2 <__TEXT_REGION_LENGTH__+0x7c00c2>
 11a:	87 e6       	ldi	r24, 0x67	; 103
 11c:	80 93 c4 00 	sts	0x00C4, r24	; 0x8000c4 <__TEXT_REGION_LENGTH__+0x7c00c4>
 120:	10 92 c5 00 	sts	0x00C5, r1	; 0x8000c5 <__TEXT_REGION_LENGTH__+0x7c00c5>
 124:	08 95       	ret

00000126 <SERIAL_uartSend>:
 126:	fc 01       	movw	r30, r24
 128:	07 c0       	rjmp	.+14     	; 0x138 <SERIAL_uartSend+0x12>
 12a:	90 91 c0 00 	lds	r25, 0x00C0	; 0x8000c0 <__TEXT_REGION_LENGTH__+0x7c00c0>
 12e:	95 ff       	sbrs	r25, 5
 130:	fc cf       	rjmp	.-8      	; 0x12a <SERIAL_uartSend+0x4>
 132:	31 96       	adiw	r30, 0x01	; 1
 134:	80 93 c6 00 	sts	0x00C6, r24	; 0x8000c6 <__TEXT_REGION_LENGTH__+0x7c00c6>
 138:	80 81       	ld	r24, Z
 13a:	81 11       	cpse	r24, r1
 13c:	f6 cf       	rjmp	.-20     	; 0x12a <SERIAL_uartSend+0x4>
 13e:	08 95       	ret

00000140 <SERIAL_uartAsyncGetHandler>:

void SERIAL_uartAsyncGetHandler(asyncGetHandler_t cb)
{
    interruptCallback = cb;
 140:	90 93 01 02 	sts	0x0201, r25	; 0x800201 <__DATA_REGION_ORIGIN__+0x1>
 144:	80 93 00 02 	sts	0x0200, r24	; 0x800200 <__DATA_REGION_ORIGIN__>
 148:	08 95       	ret

0000014a <__vector_25>:
}

ISR(USART0_RX_vect)
{
 14a:	1f 92       	push	r1
 14c:	0f 92       	push	r0
 14e:	0f b6       	in	r0, 0x3f	; 63
 150:	0f 92       	push	r0
 152:	11 24       	eor	r1, r1
 154:	0b b6       	in	r0, 0x3b	; 59
 156:	0f 92       	push	r0
 158:	2f 93       	push	r18
 15a:	3f 93       	push	r19
 15c:	4f 93       	push	r20
 15e:	5f 93       	push	r21
 160:	6f 93       	push	r22
 162:	7f 93       	push	r23
 164:	8f 93       	push	r24
 166:	9f 93       	push	r25
 168:	af 93       	push	r26
 16a:	bf 93       	push	r27
 16c:	ef 93       	push	r30
 16e:	ff 93       	push	r31
    interruptCallback(UDR0);
 170:	80 91 c6 00 	lds	r24, 0x00C6	; 0x8000c6 <__TEXT_REGION_LENGTH__+0x7c00c6>
 174:	e0 91 00 02 	lds	r30, 0x0200	; 0x800200 <__DATA_REGION_ORIGIN__>
 178:	f0 91 01 02 	lds	r31, 0x0201	; 0x800201 <__DATA_REGION_ORIGIN__+0x1>
 17c:	19 95       	eicall
 17e:	ff 91       	pop	r31
 180:	ef 91       	pop	r30
 182:	bf 91       	pop	r27
 184:	af 91       	pop	r26
 186:	9f 91       	pop	r25
 188:	8f 91       	pop	r24
 18a:	7f 91       	pop	r23
 18c:	6f 91       	pop	r22
 18e:	5f 91       	pop	r21
 190:	4f 91       	pop	r20
 192:	3f 91       	pop	r19
 194:	2f 91       	pop	r18
 196:	0f 90       	pop	r0
 198:	0b be       	out	0x3b, r0	; 59
 19a:	0f 90       	pop	r0
 19c:	0f be       	out	0x3f, r0	; 63
 19e:	0f 90       	pop	r0
 1a0:	1f 90       	pop	r1
 1a2:	18 95       	reti

000001a4 <asyncGetHandler>:
    PORTC = 0xFF;
}

void asyncGetHandler(char c)
{
    PORTA = 0x00;
 1a4:	12 b8       	out	0x02, r1	; 2
    PORTA = c;
 1a6:	82 b9       	out	0x02, r24	; 2
 1a8:	08 95       	ret

000001aa <IO_init>:

/* NOTE: Function implementations */
void IO_init(void)
{
    // set portA as an output
    DDRA  = 0xFF;
 1aa:	8f ef       	ldi	r24, 0xFF	; 255
 1ac:	81 b9       	out	0x01, r24	; 1
    PORTA = 0x00;
 1ae:	12 b8       	out	0x02, r1	; 2

    // set portC as an input
    DDRC  = 0x00;
 1b0:	17 b8       	out	0x07, r1	; 7
    PORTC = 0xFF;
 1b2:	88 b9       	out	0x08, r24	; 8
 1b4:	08 95       	ret

000001b6 <main>:
void asyncGetHandler(char c);

/* NOTE: Application implementation */
// the main loop of the function, provided to us
int main(void)
{
 1b6:	cf 93       	push	r28
 1b8:	df 93       	push	r29
 1ba:	1f 92       	push	r1
 1bc:	1f 92       	push	r1
 1be:	cd b7       	in	r28, 0x3d	; 61
 1c0:	de b7       	in	r29, 0x3e	; 62
    IO_init();
 1c2:	f3 df       	rcall	.-26     	; 0x1aa <IO_init>

    SERIAL_uartInitAsync();
 1c4:	a2 df       	rcall	.-188    	; 0x10a <SERIAL_uartInitAsync>
 1c6:	82 ed       	ldi	r24, 0xD2	; 210

    SERIAL_uartAsyncGetHandler(&asyncGetHandler);
 1c8:	90 e0       	ldi	r25, 0x00	; 0
 1ca:	ba df       	rcall	.-140    	; 0x140 <SERIAL_uartAsyncGetHandler>
 1cc:	78 94       	sei

    sei();
 1ce:	86 b1       	in	r24, 0x06	; 6

    while(1)
    {
        char foo[2] = {(char)PINC, '\0'};// + "\0";
 1d0:	89 83       	std	Y+1, r24	; 0x01
 1d2:	1a 82       	std	Y+2, r1	; 0x02
        SERIAL_uartSend((char const * const)&foo);
 1d4:	ce 01       	movw	r24, r28
 1d6:	01 96       	adiw	r24, 0x01	; 1
 1d8:	a6 df       	rcall	.-180    	; 0x126 <SERIAL_uartSend>
 1da:	f9 cf       	rjmp	.-14     	; 0x1ce <main+0x18>

000001dc <_exit>:
 1dc:	f8 94       	cli

000001de <__stop_program>:
 1de:	ff cf       	rjmp	.-2      	; 0x1de <__stop_program>
